target datalayout = "e-m:e-p270:32:32-p271:32:32-p272:64:64-i64:64-i128:128-f80:128-n8:16:32:64-S128"
target triple = "x86_64-unknown-linux-gnu"

; Function Attrs: mustprogress nounwind uwtable
define noundef double @_ZNK8QuantLib6Joshi413computeUpProbEdd(ptr noundef nonnull align 8 dereferenceable(64) %this, double noundef %k, double noundef %dj) #3 align 2 {
entry:
  %this.addr = alloca ptr, align 8
  %k.addr = alloca double, align 8
  %dj.addr = alloca double, align 8
  %alpha = alloca double, align 8
  %alpha2 = alloca double, align 8
  %alpha3 = alloca double, align 8
  %alpha5 = alloca double, align 8
  %alpha7 = alloca double, align 8
  %beta = alloca double, align 8
  %gamma = alloca double, align 8
  %delta = alloca double, align 8
  %p = alloca double, align 8
  %rootk = alloca double, align 8
  store ptr %this, ptr %this.addr, align 8, !tbaa !3
  store double %k, ptr %k.addr, align 8, !tbaa !7
  store double %dj, ptr %dj.addr, align 8, !tbaa !7
  call void @llvm.lifetime.start.p0(i64 8, ptr %alpha) #15
  %0 = load double, ptr %dj.addr, align 8, !tbaa !7
  %call = call double @sqrt(double noundef 8.000000e+00) #15, !tbaa !36
  %div = fdiv double %0, %call
  store double %div, ptr %alpha, align 8, !tbaa !7
  call void @llvm.lifetime.start.p0(i64 8, ptr %alpha2) #15
  %1 = load double, ptr %alpha, align 8, !tbaa !7
  %2 = load double, ptr %alpha, align 8, !tbaa !7
  %mul = fmul double %1, %2
  store double %mul, ptr %alpha2, align 8, !tbaa !7
  call void @llvm.lifetime.start.p0(i64 8, ptr %alpha3) #15
  %3 = load double, ptr %alpha, align 8, !tbaa !7
  %4 = load double, ptr %alpha2, align 8, !tbaa !7
  %mul2 = fmul double %3, %4
  store double %mul2, ptr %alpha3, align 8, !tbaa !7
  call void @llvm.lifetime.start.p0(i64 8, ptr %alpha5) #15
  %5 = load double, ptr %alpha3, align 8, !tbaa !7
  %6 = load double, ptr %alpha2, align 8, !tbaa !7
  %mul3 = fmul double %5, %6
  store double %mul3, ptr %alpha5, align 8, !tbaa !7
  call void @llvm.lifetime.start.p0(i64 8, ptr %alpha7) #15
  %7 = load double, ptr %alpha5, align 8, !tbaa !7
  %8 = load double, ptr %alpha2, align 8, !tbaa !7
  %mul4 = fmul double %7, %8
  store double %mul4, ptr %alpha7, align 8, !tbaa !7
  call void @llvm.lifetime.start.p0(i64 8, ptr %beta) #15
  %9 = load double, ptr %alpha, align 8, !tbaa !7
  %10 = load double, ptr %alpha3, align 8, !tbaa !7
  %neg = fneg double %10
  %11 = call double @llvm.fmuladd.f64(double -3.750000e-01, double %9, double %neg)
  store double %11, ptr %beta, align 8, !tbaa !7
  call void @llvm.lifetime.start.p0(i64 8, ptr %gamma) #15
  %12 = load double, ptr %alpha5, align 8, !tbaa !7
  %13 = load double, ptr %alpha3, align 8, !tbaa !7
  %mul7 = fmul double 0x3FF1555555555555, %13
  %14 = call double @llvm.fmuladd.f64(double 0x3FEAAAAAAAAAAAAB, double %12, double %mul7)
  %15 = load double, ptr %alpha, align 8, !tbaa !7
  %16 = call double @llvm.fmuladd.f64(double 0x3FC9000000000000, double %15, double %14)
  store double %16, ptr %gamma, align 8, !tbaa !7
  call void @llvm.lifetime.start.p0(i64 8, ptr %delta) #15
  %17 = load double, ptr %alpha, align 8, !tbaa !7
  %18 = load double, ptr %alpha3, align 8, !tbaa !7
  %mul10 = fmul double 9.285000e-01, %18
  %neg11 = fneg double %mul10
  %19 = call double @llvm.fmuladd.f64(double -1.025000e-01, double %17, double %neg11)
  %20 = load double, ptr %alpha5, align 8, !tbaa !7
  %21 = call double @llvm.fmuladd.f64(double -1.430000e+00, double %20, double %19)
  %22 = load double, ptr %alpha7, align 8, !tbaa !7
  %23 = call double @llvm.fmuladd.f64(double -5.000000e-01, double %22, double %21)
  store double %23, ptr %delta, align 8, !tbaa !7
  call void @llvm.lifetime.start.p0(i64 8, ptr %p) #15
  store double 5.000000e-01, ptr %p, align 8, !tbaa !7
  call void @llvm.lifetime.start.p0(i64 8, ptr %rootk) #15
  %24 = load double, ptr %k.addr, align 8, !tbaa !7
  %call14 = call double @sqrt(double noundef %24) #15, !tbaa !36
  store double %call14, ptr %rootk, align 8, !tbaa !7
  %25 = load double, ptr %alpha, align 8, !tbaa !7
  %26 = load double, ptr %rootk, align 8, !tbaa !7
  %div15 = fdiv double %25, %26
  %27 = load double, ptr %p, align 8, !tbaa !7
  %add = fadd double %27, %div15
  store double %add, ptr %p, align 8, !tbaa !7
  %28 = load double, ptr %beta, align 8, !tbaa !7
  %29 = load double, ptr %k.addr, align 8, !tbaa !7
  %30 = load double, ptr %rootk, align 8, !tbaa !7
  %mul16 = fmul double %29, %30
  %div17 = fdiv double %28, %mul16
  %31 = load double, ptr %p, align 8, !tbaa !7
  %add18 = fadd double %31, %div17
  store double %add18, ptr %p, align 8, !tbaa !7
  %32 = load double, ptr %gamma, align 8, !tbaa !7
  %33 = load double, ptr %k.addr, align 8, !tbaa !7
  %34 = load double, ptr %k.addr, align 8, !tbaa !7
  %mul19 = fmul double %33, %34
  %35 = load double, ptr %rootk, align 8, !tbaa !7
  %mul20 = fmul double %mul19, %35
  %div21 = fdiv double %32, %mul20
  %36 = load double, ptr %p, align 8, !tbaa !7
  %add22 = fadd double %36, %div21
  store double %add22, ptr %p, align 8, !tbaa !7
  %37 = load double, ptr %delta, align 8, !tbaa !7
  %38 = load double, ptr %k.addr, align 8, !tbaa !7
  %39 = load double, ptr %k.addr, align 8, !tbaa !7
  %mul23 = fmul double %38, %39
  %40 = load double, ptr %k.addr, align 8, !tbaa !7
  %mul24 = fmul double %mul23, %40
  %41 = load double, ptr %rootk, align 8, !tbaa !7
  %mul25 = fmul double %mul24, %41
  %div26 = fdiv double %37, %mul25
  %42 = load double, ptr %p, align 8, !tbaa !7
  %add27 = fadd double %42, %div26
  store double %add27, ptr %p, align 8, !tbaa !7
  %43 = load double, ptr %p, align 8, !tbaa !7
  call void @llvm.lifetime.end.p0(i64 8, ptr %rootk) #15
  call void @llvm.lifetime.end.p0(i64 8, ptr %p) #15
  call void @llvm.lifetime.end.p0(i64 8, ptr %delta) #15
  call void @llvm.lifetime.end.p0(i64 8, ptr %gamma) #15
  call void @llvm.lifetime.end.p0(i64 8, ptr %beta) #15
  call void @llvm.lifetime.end.p0(i64 8, ptr %alpha7) #15
  call void @llvm.lifetime.end.p0(i64 8, ptr %alpha5) #15
  call void @llvm.lifetime.end.p0(i64 8, ptr %alpha3) #15
  call void @llvm.lifetime.end.p0(i64 8, ptr %alpha2) #15
  call void @llvm.lifetime.end.p0(i64 8, ptr %alpha) #15
  ret double %43
}