; Function Attrs: mustprogress nofree nounwind willreturn memory(write) uwtable
define noundef double @_ZNK8QuantLib6Joshi413computeUpProbEdd(ptr nocapture noundef nonnull readnone align 8 dereferenceable(64) %this, double noundef %k, double noundef %dj) local_unnamed_addr #11 align 2 {
entry:
  %div = fdiv double %dj, 0x4006A09E667F3BCD
  %mul = fmul double %div, %div
  %mul2 = fmul double %div, %mul
  %mul3 = fmul double %mul, %mul2
  %mul4 = fmul double %mul, %mul3
  %neg = fneg double %mul2
  %0 = tail call double @llvm.fmuladd.f64(double %div, double -3.750000e-01, double %neg)
  %mul7 = fmul double %mul2, 0x3FF1555555555555
  %1 = tail call double @llvm.fmuladd.f64(double %mul3, double 0x3FEAAAAAAAAAAAAB, double %mul7)
  %2 = tail call double @llvm.fmuladd.f64(double %div, double 0x3FC9000000000000, double %1)
  %neg11 = fmul double %mul2, -9.285000e-01
  %3 = tail call double @llvm.fmuladd.f64(double %div, double -1.025000e-01, double %neg11)
  %4 = tail call double @llvm.fmuladd.f64(double %mul3, double -1.430000e+00, double %3)
  %5 = tail call double @llvm.fmuladd.f64(double %mul4, double -5.000000e-01, double %4)
  %call14 = tail call double @sqrt(double noundef %k) #18, !tbaa !46
  %div15 = fdiv double %div, %call14
  %add = fadd double %div15, 5.000000e-01
  %mul16 = fmul double %k, %call14
  %div17 = fdiv double %0, %mul16
  %add18 = fadd double %add, %div17
  %mul19 = fmul double %k, %k
  %mul20 = fmul double %mul19, %call14
  %div21 = fdiv double %2, %mul20
  %add22 = fadd double %div21, %add18
  %mul24 = fmul double %k, %mul19
  %mul25 = fmul double %mul24, %call14
  %div26 = fdiv double %5, %mul25
  %add27 = fadd double %div26, %add22
  ret double %add27
}